target datalayout = "e-m:e-p270:32:32-p271:32:32-p272:64:64-i64:64-i128:128-f80:128-n8:16:32:64-S128"
target triple = "x86_64-pc-linux-gnu"

%struct.VP8LBitWriter = type { i64, i32, ptr, ptr, ptr, i32 }

; Function Attrs: nounwind uwtable
define internal i32 @VP8LBitWriterResize(ptr noundef %0, i64 noundef %1) #0 {
  %3 = alloca i32, align 4
  %4 = alloca ptr, align 8
  %5 = alloca i64, align 8
  %6 = alloca ptr, align 8
  %7 = alloca i64, align 8
  %8 = alloca i64, align 8
  %9 = alloca i64, align 8
  %10 = alloca i64, align 8
  %11 = alloca i64, align 8
  %12 = alloca i32, align 4
  store ptr %0, ptr %4, align 8, !tbaa !27
  store i64 %1, ptr %5, align 8, !tbaa !18
  call void @llvm.lifetime.start.p0(i64 8, ptr %6) #6
  call void @llvm.lifetime.start.p0(i64 8, ptr %7) #6
  call void @llvm.lifetime.start.p0(i64 8, ptr %8) #6
  %13 = load ptr, ptr %4, align 8, !tbaa !27
  %14 = getelementptr inbounds nuw %struct.VP8LBitWriter, ptr %13, i32 0, i32 4
  %15 = load ptr, ptr %14, align 8, !tbaa !28
  %16 = load ptr, ptr %4, align 8, !tbaa !27
  %17 = getelementptr inbounds nuw %struct.VP8LBitWriter, ptr %16, i32 0, i32 2
  %18 = load ptr, ptr %17, align 8, !tbaa !30
  %19 = ptrtoint ptr %15 to i64
  %20 = ptrtoint ptr %18 to i64
  %21 = sub i64 %19, %20
  store i64 %21, ptr %8, align 8, !tbaa !18
  call void @llvm.lifetime.start.p0(i64 8, ptr %9) #6
  %22 = load ptr, ptr %4, align 8, !tbaa !27
  %23 = getelementptr inbounds nuw %struct.VP8LBitWriter, ptr %22, i32 0, i32 3
  %24 = load ptr, ptr %23, align 8, !tbaa !31
  %25 = load ptr, ptr %4, align 8, !tbaa !27
  %26 = getelementptr inbounds nuw %struct.VP8LBitWriter, ptr %25, i32 0, i32 2
  %27 = load ptr, ptr %26, align 8, !tbaa !30
  %28 = ptrtoint ptr %24 to i64
  %29 = ptrtoint ptr %27 to i64
  %30 = sub i64 %28, %29
  store i64 %30, ptr %9, align 8, !tbaa !18
  call void @llvm.lifetime.start.p0(i64 8, ptr %10) #6
  %31 = load i64, ptr %9, align 8, !tbaa !18
  %32 = load i64, ptr %5, align 8, !tbaa !18
  %33 = add i64 %31, %32
  store i64 %33, ptr %10, align 8, !tbaa !18
  call void @llvm.lifetime.start.p0(i64 8, ptr %11) #6
  %34 = load i64, ptr %10, align 8, !tbaa !18
  store i64 %34, ptr %11, align 8, !tbaa !18
  %35 = load i64, ptr %11, align 8, !tbaa !18
  %36 = load i64, ptr %10, align 8, !tbaa !18
  %37 = icmp ne i64 %35, %36
  br i1 %37, label %38, label %41

38:                                               ; preds = %2
  %39 = load ptr, ptr %4, align 8, !tbaa !27
  %40 = getelementptr inbounds nuw %struct.VP8LBitWriter, ptr %39, i32 0, i32 5
  store i32 1, ptr %40, align 8, !tbaa !32
  store i32 0, ptr %3, align 4
  store i32 1, ptr %12, align 4
  br label %100

41:                                               ; preds = %2
  %42 = load i64, ptr %8, align 8, !tbaa !18
  %43 = icmp ugt i64 %42, 0
  br i1 %43, label %44, label %49

44:                                               ; preds = %41
  %45 = load i64, ptr %11, align 8, !tbaa !18
  %46 = load i64, ptr %8, align 8, !tbaa !18
  %47 = icmp ule i64 %45, %46
  br i1 %47, label %48, label %49

48:                                               ; preds = %44
  store i32 1, ptr %3, align 4
  store i32 1, ptr %12, align 4
  br label %100

49:                                               ; preds = %44, %41
  %50 = load i64, ptr %8, align 8, !tbaa !18
  %51 = mul i64 3, %50
  %52 = lshr i64 %51, 1
  store i64 %52, ptr %7, align 8, !tbaa !18
  %53 = load i64, ptr %7, align 8, !tbaa !18
  %54 = load i64, ptr %11, align 8, !tbaa !18
  %55 = icmp ult i64 %53, %54
  br i1 %55, label %56, label %58

56:                                               ; preds = %49
  %57 = load i64, ptr %11, align 8, !tbaa !18
  store i64 %57, ptr %7, align 8, !tbaa !18
  br label %58

58:                                               ; preds = %56, %49
  %59 = load i64, ptr %7, align 8, !tbaa !18
  %60 = lshr i64 %59, 10
  %61 = add i64 %60, 1
  %62 = shl i64 %61, 10
  store i64 %62, ptr %7, align 8, !tbaa !18
  %63 = load i64, ptr %7, align 8, !tbaa !18
  %64 = call ptr @WebPSafeMalloc(i64 noundef 1, i64 noundef %63)
  store ptr %64, ptr %6, align 8, !tbaa !26
  %65 = load ptr, ptr %6, align 8, !tbaa !26
  %66 = icmp eq ptr %65, null
  br i1 %66, label %67, label %70

67:                                               ; preds = %58
  %68 = load ptr, ptr %4, align 8, !tbaa !27
  %69 = getelementptr inbounds nuw %struct.VP8LBitWriter, ptr %68, i32 0, i32 5
  store i32 1, ptr %69, align 8, !tbaa !32
  store i32 0, ptr %3, align 4
  store i32 1, ptr %12, align 4
  br label %100

70:                                               ; preds = %58
  %71 = load i64, ptr %9, align 8, !tbaa !18
  %72 = icmp ugt i64 %71, 0
  br i1 %72, label %73, label %79

73:                                               ; preds = %70
  %74 = load ptr, ptr %6, align 8, !tbaa !26
  %75 = load ptr, ptr %4, align 8, !tbaa !27
  %76 = getelementptr inbounds nuw %struct.VP8LBitWriter, ptr %75, i32 0, i32 2
  %77 = load ptr, ptr %76, align 8, !tbaa !30
  %78 = load i64, ptr %9, align 8, !tbaa !18
  call void @llvm.memcpy.p0.p0.i64(ptr align 1 %74, ptr align 1 %77, i64 %78, i1 false)
  br label %79

79:                                               ; preds = %73, %70
  %80 = load ptr, ptr %4, align 8, !tbaa !27
  %81 = getelementptr inbounds nuw %struct.VP8LBitWriter, ptr %80, i32 0, i32 2
  %82 = load ptr, ptr %81, align 8, !tbaa !30
  call void @WebPSafeFree(ptr noundef %82)
  %83 = load ptr, ptr %6, align 8, !tbaa !26
  %84 = load ptr, ptr %4, align 8, !tbaa !27
  %85 = getelementptr inbounds nuw %struct.VP8LBitWriter, ptr %84, i32 0, i32 2
  store ptr %83, ptr %85, align 8, !tbaa !30
  %86 = load ptr, ptr %4, align 8, !tbaa !27
  %87 = getelementptr inbounds nuw %struct.VP8LBitWriter, ptr %86, i32 0, i32 2
  %88 = load ptr, ptr %87, align 8, !tbaa !30
  %89 = load i64, ptr %9, align 8, !tbaa !18
  %90 = getelementptr inbounds nuw i8, ptr %88, i64 %89
  %91 = load ptr, ptr %4, align 8, !tbaa !27
  %92 = getelementptr inbounds nuw %struct.VP8LBitWriter, ptr %91, i32 0, i32 3
  store ptr %90, ptr %92, align 8, !tbaa !31
  %93 = load ptr, ptr %4, align 8, !tbaa !27
  %94 = getelementptr inbounds nuw %struct.VP8LBitWriter, ptr %93, i32 0, i32 2
  %95 = load ptr, ptr %94, align 8, !tbaa !30
  %96 = load i64, ptr %7, align 8, !tbaa !18
  %97 = getelementptr inbounds nuw i8, ptr %95, i64 %96
  %98 = load ptr, ptr %4, align 8, !tbaa !27
  %99 = getelementptr inbounds nuw %struct.VP8LBitWriter, ptr %98, i32 0, i32 4
  store ptr %97, ptr %99, align 8, !tbaa !28
  store i32 1, ptr %3, align 4
  store i32 1, ptr %12, align 4
  br label %100

100:                                              ; preds = %79, %67, %48, %38
  call void @llvm.lifetime.end.p0(i64 8, ptr %11) #6
  call void @llvm.lifetime.end.p0(i64 8, ptr %10) #6
  call void @llvm.lifetime.end.p0(i64 8, ptr %9) #6
  call void @llvm.lifetime.end.p0(i64 8, ptr %8) #6
  call void @llvm.lifetime.end.p0(i64 8, ptr %7) #6
  call void @llvm.lifetime.end.p0(i64 8, ptr %6) #6
  %101 = load i32, ptr %3, align 4
  ret i32 %101
}

; Function Attrs: nounwind uwtable
define hidden ptr @VP8LBitWriterFinish(ptr noundef %0) #0 {
  %2 = alloca ptr, align 8
  store ptr %0, ptr %2, align 8, !tbaa !27
  %3 = load ptr, ptr %2, align 8, !tbaa !27
  %4 = load ptr, ptr %2, align 8, !tbaa !27
  %5 = getelementptr inbounds nuw %struct.VP8LBitWriter, ptr %4, i32 0, i32 1
  %6 = load i32, ptr %5, align 8, !tbaa !34
  %7 = add nsw i32 %6, 7
  %8 = ashr i32 %7, 3
  %9 = sext i32 %8 to i64
  %10 = call i32 @VP8LBitWriterResize(ptr noundef %3, i64 noundef %9)
  %11 = icmp ne i32 %10, 0
  br i1 %11, label %12, label %38

12:                                               ; preds = %1
  br label %13

13:                                               ; preds = %18, %12
  %14 = load ptr, ptr %2, align 8, !tbaa !27
  %15 = getelementptr inbounds nuw %struct.VP8LBitWriter, ptr %14, i32 0, i32 1
  %16 = load i32, ptr %15, align 8, !tbaa !34
  %17 = icmp sgt i32 %16, 0
  br i1 %17, label %18, label %35

18:                                               ; preds = %13
  %19 = load ptr, ptr %2, align 8, !tbaa !27
  %20 = getelementptr inbounds nuw %struct.VP8LBitWriter, ptr %19, i32 0, i32 0
  %21 = load i64, ptr %20, align 8, !tbaa !33
  %22 = trunc i64 %21 to i8
  %23 = load ptr, ptr %2, align 8, !tbaa !27
  %24 = getelementptr inbounds nuw %struct.VP8LBitWriter, ptr %23, i32 0, i32 3
  %25 = load ptr, ptr %24, align 8, !tbaa !31
  %26 = getelementptr inbounds nuw i8, ptr %25, i32 1
  store ptr %26, ptr %24, align 8, !tbaa !31
  store i8 %22, ptr %25, align 1, !tbaa !15
  %27 = load ptr, ptr %2, align 8, !tbaa !27
  %28 = getelementptr inbounds nuw %struct.VP8LBitWriter, ptr %27, i32 0, i32 0
  %29 = load i64, ptr %28, align 8, !tbaa !33
  %30 = lshr i64 %29, 8
  store i64 %30, ptr %28, align 8, !tbaa !33
  %31 = load ptr, ptr %2, align 8, !tbaa !27
  %32 = getelementptr inbounds nuw %struct.VP8LBitWriter, ptr %31, i32 0, i32 1
  %33 = load i32, ptr %32, align 8, !tbaa !34
  %34 = sub nsw i32 %33, 8
  store i32 %34, ptr %32, align 8, !tbaa !34
  br label %13, !llvm.loop !37

35:                                               ; preds = %13
  %36 = load ptr, ptr %2, align 8, !tbaa !27
  %37 = getelementptr inbounds nuw %struct.VP8LBitWriter, ptr %36, i32 0, i32 1
  store i32 0, ptr %37, align 8, !tbaa !34
  br label %38

38:                                               ; preds = %35, %1
  %39 = load ptr, ptr %2, align 8, !tbaa !27
  %40 = getelementptr inbounds nuw %struct.VP8LBitWriter, ptr %39, i32 0, i32 2
  %41 = load ptr, ptr %40, align 8, !tbaa !30
  ret ptr %41
}