; Function Attrs: nounwind uwtable
define hidden ptr @VP8LBitWriterFinish(ptr noundef captures(none) %0) local_unnamed_addr #0 {
  %2 = getelementptr inbounds nuw i8, ptr %0, i64 8
  %3 = load i32, ptr %2, align 8, !tbaa !28
  %4 = add nsw i32 %3, 7
  %5 = ashr i32 %4, 3
  %6 = sext i32 %5 to i64
  %7 = getelementptr inbounds nuw i8, ptr %0, i64 32
  %8 = load ptr, ptr %7, align 8, !tbaa !26
  %9 = getelementptr inbounds nuw i8, ptr %0, i64 16
  %10 = load ptr, ptr %9, align 8, !tbaa !24
  %11 = ptrtoint ptr %8 to i64
  %12 = ptrtoint ptr %10 to i64
  %13 = sub i64 %11, %12
  %14 = getelementptr inbounds nuw i8, ptr %0, i64 24
  %15 = load ptr, ptr %14, align 8, !tbaa !25
  %16 = ptrtoint ptr %15 to i64
  %17 = sub i64 %16, %12
  %18 = add i64 %17, %6
  %.not.i = icmp eq ptr %8, %10
  %.not40.i = icmp ugt i64 %18, %13
  %or.cond.i = select i1 %.not.i, i1 true, i1 %.not40.i
  br i1 %or.cond.i, label %19, label %VP8LBitWriterResize.exit

19:                                               ; preds = %1
  %20 = mul i64 %13, 3
  %21 = lshr i64 %20, 1
  %spec.select.i = tail call i64 @llvm.umax.i64(i64 %21, i64 %18)
  %22 = and i64 %spec.select.i, -1024
  %23 = add i64 %22, 1024
  %24 = tail call ptr @WebPSafeMalloc(i64 noundef 1, i64 noundef %23) #7
  %25 = icmp eq ptr %24, null
  br i1 %25, label %VP8LBitWriterResize.exit.thread, label %27

VP8LBitWriterResize.exit.thread:                  ; preds = %19
  %26 = getelementptr inbounds nuw i8, ptr %0, i64 40
  store i32 1, ptr %26, align 8, !tbaa !22
  br label %44

27:                                               ; preds = %19
  %.not41.i = icmp eq ptr %15, %10
  br i1 %.not41.i, label %30, label %28

28:                                               ; preds = %27
  %29 = load ptr, ptr %9, align 8, !tbaa !24
  tail call void @llvm.memcpy.p0.p0.i64(ptr nonnull align 1 %24, ptr align 1 %29, i64 %17, i1 false)
  br label %30

30:                                               ; preds = %28, %27
  %31 = load ptr, ptr %9, align 8, !tbaa !24
  tail call void @WebPSafeFree(ptr noundef %31) #7
  store ptr %24, ptr %9, align 8, !tbaa !24
  %32 = getelementptr inbounds nuw i8, ptr %24, i64 %17
  store ptr %32, ptr %14, align 8, !tbaa !25
  %33 = getelementptr inbounds nuw i8, ptr %24, i64 %23
  store ptr %33, ptr %7, align 8, !tbaa !26
  %.pr.pre = load i32, ptr %2, align 8, !tbaa !28
  br label %VP8LBitWriterResize.exit

VP8LBitWriterResize.exit:                         ; preds = %1, %30
  %.pr = phi i32 [ %3, %1 ], [ %.pr.pre, %30 ]
  %34 = icmp sgt i32 %.pr, 0
  br i1 %34, label %.lr.ph.preheader, label %._crit_edge

.lr.ph.preheader:                                 ; preds = %VP8LBitWriterResize.exit
  %.pre = load i64, ptr %0, align 8, !tbaa !27
  br label %.lr.ph

.lr.ph:                                           ; preds = %.lr.ph.preheader, %.lr.ph
  %35 = phi i64 [ %.pre, %.lr.ph.preheader ], [ %40, %.lr.ph ]
  %36 = trunc i64 %35 to i8
  %37 = load ptr, ptr %14, align 8, !tbaa !25
  %38 = getelementptr inbounds nuw i8, ptr %37, i64 1
  store ptr %38, ptr %14, align 8, !tbaa !25
  store i8 %36, ptr %37, align 1, !tbaa !12
  %39 = load i64, ptr %0, align 8, !tbaa !27
  %40 = lshr i64 %39, 8
  store i64 %40, ptr %0, align 8, !tbaa !27
  %41 = load i32, ptr %2, align 8, !tbaa !28
  %42 = add nsw i32 %41, -8
  store i32 %42, ptr %2, align 8, !tbaa !28
  %43 = icmp sgt i32 %41, 8
  br i1 %43, label %.lr.ph, label %._crit_edge, !llvm.loop !34

._crit_edge:                                      ; preds = %.lr.ph, %VP8LBitWriterResize.exit
  store i32 0, ptr %2, align 8, !tbaa !28
  br label %44

44:                                               ; preds = %VP8LBitWriterResize.exit.thread, %._crit_edge
  %45 = load ptr, ptr %9, align 8, !tbaa !24
  ret ptr %45
}